target datalayout = "e-m:e-p270:32:32-p271:32:32-p272:64:64-i64:64-i128:128-f80:128-n8:16:32:64-S128"
target triple = "x86_64-unknown-linux-gnu"

%"class.sat::literal" = type { i32 }
%class.rational = type { %class.mpq }
%class.mpq = type { %class.mpz, %class.mpz }
%class.mpz = type { i32, i8, ptr }
%class.symbol = type { ptr }
%"struct.arith::solver::var_value_hash" = type { ptr }
%"struct.arith::solver::var_value_eq" = type { ptr }
%"class.arith::solver" = type { %"class.euf::th_euf_solver.base", [4 x i8], %class.int_hashtable, i8, %class.scoped_ptr_vector, i32, [4 x i8], %"class.arith::sls", %class.vector.11, %class.vector.12, i32, i32, i32, i32, %class.svector.13, %class.svector.15, %class.svector.17, %class.svector.19, %class.svector.21, %class.svector.15, ptr, %class.ptr_vector.23, %class.ptr_vector.25, %class.ptr_vector.23, %class.vector.27, %class.u_map, %class.vector.27, %class.svector.1, %class.svector.1, i32, %class.svector.30, i32, %class.indexed_uint_set, i32, %"struct.lp_api::stats", %class.svector.32, %class.scoped_ptr, %class.scoped_ptr.34, %class.scoped_ptr.35, %"class.arith::solver::resource_limit", %class.ptr_vector.36, %class.symbol, %"class.std::vector", %"class.lp::lp_bound_propagator", %class.vector.47, %"class.lp::explanation", %class.svector.15, %class.svector.15, %class.vector.11, %class.svector.17, %class.vector.51, %"class.nla::lemma", %class.arith_util, i8, %class.vector.48, %class.vector.48, %class.vector.48, %class.vector.11, %class.map.53, i32, %"class.sat::literal", %class.ref_vector, %class.obj_ref, %class.obj_map, %class.obj_map.61, i8, [7 x i8], %"class.arith::arith_proof_hint_builder" }
%"class.euf::th_euf_solver.base" = type <{ %"class.euf::th_solver", ptr, %class.ptr_vector, %class.svector.1, i32 }>
%"class.euf::th_solver" = type { %"class.sat::extension", %"class.euf::th_model_builder", %"class.euf::th_decompile", %"class.euf::th_internalizer", ptr }
%"class.sat::extension" = type { ptr, i8, i32, %class.symbol, ptr }
%"class.euf::th_model_builder" = type { ptr }
%"class.euf::th_decompile" = type { ptr }
%"class.euf::th_internalizer" = type { ptr, %class.ptr_vector, %class.svector }
%class.svector = type { %class.vector.0 }
%class.vector.0 = type { ptr }
%class.ptr_vector = type { %class.vector }
%class.vector = type { ptr }
%class.int_hashtable = type { %class.core_hashtable.base, [4 x i8] }
%class.core_hashtable.base = type <{ %"struct.arith::solver::var_value_hash", %"struct.arith::solver::var_value_eq", ptr, i32, i32, i32 }>
%class.scoped_ptr_vector = type { %class.ptr_vector.3 }
%class.ptr_vector.3 = type { %class.vector.4 }
%class.vector.4 = type { ptr }
%"class.arith::sls" = type <{ %"class.sat::local_search_plugin", ptr, ptr, ptr, %"struct.arith::sls::stats", [4 x i8], %"struct.arith::sls::config", %class.scoped_ptr_vector.5, %class.vector.8, %class.svector.9, i8, [7 x i8] }>
%"class.sat::local_search_plugin" = type { ptr }
%"struct.arith::sls::stats" = type { i32 }
%"struct.arith::sls::config" = type { double, i32, i32, i32, double }
%class.scoped_ptr_vector.5 = type { %class.ptr_vector.6 }
%class.ptr_vector.6 = type { %class.vector.7 }
%class.vector.7 = type { ptr }
%class.vector.8 = type { ptr }
%class.svector.9 = type { %class.vector.10 }
%class.vector.10 = type { ptr }
%class.vector.12 = type { ptr }
%class.svector.13 = type { %class.vector.14 }
%class.vector.14 = type { ptr }
%class.svector.19 = type { %class.vector.20 }
%class.vector.20 = type { ptr }
%class.svector.21 = type { %class.vector.22 }
%class.vector.22 = type { ptr }
%class.ptr_vector.25 = type { %class.vector.26 }
%class.vector.26 = type { ptr }
%class.ptr_vector.23 = type { %class.vector.24 }
%class.vector.24 = type { ptr }
%class.u_map = type { %class.map }
%class.map = type { %class.table2map }
%class.table2map = type { %class.core_hashtable.28 }
%class.core_hashtable.28 = type <{ ptr, i32, i32, i32, [4 x i8] }>
%class.vector.27 = type { ptr }
%class.svector.1 = type { %class.vector.2 }
%class.vector.2 = type { ptr }
%class.svector.30 = type { %class.vector.31 }
%class.vector.31 = type { ptr }
%class.indexed_uint_set = type { i32, %class.svector.1, %class.svector.1 }
%"struct.lp_api::stats" = type { i32, i32, i32, i32, i32, i32, i32, i32, i32, i32, i32, i32, i32, i32, i32, i32 }
%class.svector.32 = type { %class.vector.33 }
%class.vector.33 = type { ptr }
%class.scoped_ptr = type { ptr }
%class.scoped_ptr.34 = type { ptr }
%class.scoped_ptr.35 = type { ptr }
%"class.arith::solver::resource_limit" = type { %"class.lp::lp_resource_limit", ptr }
%"class.lp::lp_resource_limit" = type { ptr }
%class.ptr_vector.36 = type { %class.vector.37 }
%class.vector.37 = type { ptr }
%"class.std::vector" = type { %"struct.std::_Vector_base" }
%"struct.std::_Vector_base" = type { %"struct.std::_Vector_base<lp::implied_bound, std_allocator<lp::implied_bound>>::_Vector_impl" }
%"struct.std::_Vector_base<lp::implied_bound, std_allocator<lp::implied_bound>>::_Vector_impl" = type { %"struct.std::_Vector_base<lp::implied_bound, std_allocator<lp::implied_bound>>::_Vector_impl_data" }
%"struct.std::_Vector_base<lp::implied_bound, std_allocator<lp::implied_bound>>::_Vector_impl_data" = type { ptr, ptr, ptr }
%"class.lp::lp_bound_propagator" = type { %class.uint_set, %class.u_map.38, %class.u_map.38, ptr, ptr, %class.map.43, %class.map.43, %class.map.43, ptr }
%class.uint_set = type { %class.svector.1 }
%class.u_map.38 = type { %class.map.39 }
%class.map.39 = type { %class.table2map.40 }
%class.table2map.40 = type { %class.core_hashtable.41 }
%class.core_hashtable.41 = type <{ ptr, i32, i32, i32, [4 x i8] }>
%class.map.43 = type { %class.table2map.44 }
%class.table2map.44 = type { %class.core_hashtable.45 }
%class.core_hashtable.45 = type <{ ptr, i32, i32, i32, [4 x i8] }>
%class.vector.47 = type { ptr }
%"class.lp::explanation" = type { %class.vector.48, %class.hashtable }
%class.hashtable = type { %class.core_hashtable.base.50, [4 x i8] }
%class.core_hashtable.base.50 = type <{ ptr, i32, i32, i32 }>
%class.svector.15 = type { %class.vector.16 }
%class.vector.16 = type { ptr }
%class.svector.17 = type { %class.vector.18 }
%class.vector.18 = type { ptr }
%class.vector.51 = type { ptr }
%"class.nla::lemma" = type { %class.vector.52, %"class.lp::explanation" }
%class.vector.52 = type { ptr }
%class.arith_util = type { ptr, ptr }
%class.vector.48 = type { ptr }
%class.vector.11 = type { ptr }
%class.map.53 = type { %class.table2map.54 }
%class.table2map.54 = type { %class.core_hashtable.55 }
%class.core_hashtable.55 = type <{ ptr, i32, i32, i32, [4 x i8] }>
%class.ref_vector = type { %class.ref_vector_core }
%class.ref_vector_core = type { %class.ref_manager_wrapper, %class.ptr_vector.25 }
%class.ref_manager_wrapper = type { ptr }
%class.obj_ref = type { ptr, ptr }
%class.obj_map = type { %class.core_hashtable.57 }
%class.core_hashtable.57 = type <{ ptr, i32, i32, i32, [4 x i8] }>
%class.obj_map.61 = type { %class.core_hashtable.62 }
%class.core_hashtable.62 = type <{ ptr, i32, i32, i32, [4 x i8] }>
%"class.arith::arith_proof_hint_builder" = type <{ %class.vector.66, %class.svector.67, i32, i32, i32, i32, i32, [4 x i8] }>
%class.vector.66 = type { ptr }
%class.svector.67 = type { %class.vector.68 }
%class.vector.68 = type { ptr }
%"class.lp::tv" = type { i32 }
%"struct.lp::numeric_pair" = type { %class.rational, %class.rational }

; Function Attrs: mustprogress nounwind uwtable
define linkonce_odr hidden noundef ptr @_ZNK10scoped_ptrIN2lp10lar_solverEEptEv(ptr noundef nonnull align 8 dereferenceable(8) %this) #4 comdat align 2 {
entry:
  %this.addr = alloca ptr, align 8
  store ptr %this, ptr %this.addr, align 8
  %this1 = load ptr, ptr %this.addr, align 8
  %m_ptr = getelementptr inbounds %class.scoped_ptr.35, ptr %this1, i32 0, i32 0
  %0 = load ptr, ptr %m_ptr, align 8
  ret ptr %0
}

; Function Attrs: mustprogress nounwind uwtable
define linkonce_odr hidden noundef zeroext i1 @_ZNK10scoped_ptrIN3nla6solverEEcvbEv(ptr noundef nonnull align 8 dereferenceable(8) %this) #4 comdat align 2 {
entry:
  %this.addr = alloca ptr, align 8
  store ptr %this, ptr %this.addr, align 8
  %this1 = load ptr, ptr %this.addr, align 8
  %m_ptr = getelementptr inbounds %class.scoped_ptr, ptr %this1, i32 0, i32 0
  %0 = load ptr, ptr %m_ptr, align 8
  %cmp = icmp ne ptr %0, null
  ret i1 %cmp
}

; Function Attrs: mustprogress uwtable
define hidden void @_ZNK5arith6solver10get_ivalueEi(ptr noalias sret(%"struct.lp::numeric_pair") align 8 %agg.result, ptr noundef nonnull align 8 dereferenceable(1144) %this, i32 noundef %v) #5 align 2 {
entry:
  %result.ptr = alloca ptr, align 8
  %this.addr = alloca ptr, align 8
  %v.addr = alloca i32, align 4
  %ref.tmp = alloca %"class.lp::tv", align 4
  store ptr %agg.result, ptr %result.ptr, align 8
  store ptr %this, ptr %this.addr, align 8
  store i32 %v, ptr %v.addr, align 4
  %this1 = load ptr, ptr %this.addr, align 8
  %m_solver = getelementptr inbounds %"class.arith::solver", ptr %this1, i32 0, i32 38
  %call = call noundef ptr @_ZNK10scoped_ptrIN2lp10lar_solverEEptEv(ptr noundef nonnull align 8 dereferenceable(8) %m_solver)
  %0 = load i32, ptr %v.addr, align 4
  %call2 = call i32 @_ZNK5arith6solver6get_tvEi(ptr noundef nonnull align 8 dereferenceable(1144) %this1, i32 noundef %0)
  %coerce.dive = getelementptr inbounds %"class.lp::tv", ptr %ref.tmp, i32 0, i32 0
  store i32 %call2, ptr %coerce.dive, align 4
  %call3 = call noundef nonnull align 8 dereferenceable(64) ptr @_ZNK2lp10lar_solver13get_tv_ivalueERKNS_2tvE(ptr noundef nonnull align 8 dereferenceable(1888) %call, ptr noundef nonnull align 4 dereferenceable(4) %ref.tmp)
  call void @_ZN2lp12numeric_pairI8rationalEC2ERKS2_(ptr noundef nonnull align 8 dereferenceable(64) %agg.result, ptr noundef nonnull align 8 dereferenceable(64) %call3)
  ret void
}

; Function Attrs: mustprogress nounwind uwtable
define linkonce_odr hidden noundef ptr @_ZNK10scoped_ptrIN3nla6solverEEptEv(ptr noundef nonnull align 8 dereferenceable(8) %this) #4 comdat align 2 {
entry:
  %this.addr = alloca ptr, align 8
  store ptr %this, ptr %this.addr, align 8
  %this1 = load ptr, ptr %this.addr, align 8
  %m_ptr = getelementptr inbounds %class.scoped_ptr, ptr %this1, i32 0, i32 0
  %0 = load ptr, ptr %m_ptr, align 8
  ret ptr %0
}

; Function Attrs: mustprogress uwtable
define hidden noundef zeroext i1 @_ZN5arith6solver13use_nra_modelEv(ptr noundef nonnull align 8 dereferenceable(1144) %this) #5 align 2 {
entry:
  %this.addr = alloca ptr, align 8
  store ptr %this, ptr %this.addr, align 8
  %this1 = load ptr, ptr %this.addr, align 8
  %m_nla = getelementptr inbounds %"class.arith::solver", ptr %this1, i32 0, i32 36
  %call = call noundef zeroext i1 @_ZNK10scoped_ptrIN3nla6solverEEcvbEv(ptr noundef nonnull align 8 dereferenceable(8) %m_nla)
  br i1 %call, label %land.rhs, label %land.end

land.rhs:                                         ; preds = %entry
  %m_nla2 = getelementptr inbounds %"class.arith::solver", ptr %this1, i32 0, i32 36
  %call3 = call noundef ptr @_ZNK10scoped_ptrIN3nla6solverEEptEv(ptr noundef nonnull align 8 dereferenceable(8) %m_nla2)
  %call4 = call noundef zeroext i1 @_ZNK3nla6solver13use_nra_modelEv(ptr noundef nonnull align 8 dereferenceable(8) %call3)
  br label %land.end

land.end:                                         ; preds = %land.rhs, %entry
  %0 = phi i1 [ false, %entry ], [ %call4, %land.rhs ]
  ret i1 %0
}

; Function Attrs: mustprogress uwtable
define hidden noundef zeroext i1 @_ZN5arith6solver5is_eqEii(ptr noundef nonnull align 8 dereferenceable(1144) %this, i32 noundef %v1, i32 noundef %v2) #5 align 2 personality ptr @__gxx_personality_v0 {
entry:
  %retval = alloca i1, align 1
  %this.addr = alloca ptr, align 8
  %v1.addr = alloca i32, align 4
  %v2.addr = alloca i32, align 4
  %ref.tmp = alloca %"struct.lp::numeric_pair", align 8
  %ref.tmp13 = alloca %"struct.lp::numeric_pair", align 8
  %exn.slot = alloca ptr, align 8
  %ehselector.slot = alloca i32, align 4
  store ptr %this, ptr %this.addr, align 8
  store i32 %v1, ptr %v1.addr, align 4
  store i32 %v2, ptr %v2.addr, align 4
  %this1 = load ptr, ptr %this.addr, align 8
  %call = call noundef zeroext i1 @_ZN5arith6solver13use_nra_modelEv(ptr noundef nonnull align 8 dereferenceable(1144) %this1)
  br i1 %call, label %if.then, label %if.else

if.then:                                          ; preds = %entry
  %m_nla = getelementptr inbounds %"class.arith::solver", ptr %this1, i32 0, i32 36
  %call2 = call noundef ptr @_ZNK10scoped_ptrIN3nla6solverEEptEv(ptr noundef nonnull align 8 dereferenceable(8) %m_nla)
  %call3 = call noundef nonnull align 8 dereferenceable(17) ptr @_ZN3nla6solver2amEv(ptr noundef nonnull align 8 dereferenceable(8) %call2)
  %0 = load i32, ptr %v1.addr, align 4
  %m_nla4 = getelementptr inbounds %"class.arith::solver", ptr %this1, i32 0, i32 36
  %call5 = call noundef ptr @_ZNK10scoped_ptrIN3nla6solverEEptEv(ptr noundef nonnull align 8 dereferenceable(8) %m_nla4)
  %call6 = call noundef nonnull align 8 dereferenceable(16) ptr @_ZN3nla6solver4tmp1Ev(ptr noundef nonnull align 8 dereferenceable(8) %call5)
  %call7 = call noundef nonnull align 8 dereferenceable(8) ptr @_ZNK5arith6solver8nl_valueEiR15_scoped_numeralIN17algebraic_numbers7managerEE(ptr noundef nonnull align 8 dereferenceable(1144) %this1, i32 noundef %0, ptr noundef nonnull align 8 dereferenceable(16) %call6)
  %1 = load i32, ptr %v2.addr, align 4
  %m_nla8 = getelementptr inbounds %"class.arith::solver", ptr %this1, i32 0, i32 36
  %call9 = call noundef ptr @_ZNK10scoped_ptrIN3nla6solverEEptEv(ptr noundef nonnull align 8 dereferenceable(8) %m_nla8)
  %call10 = call noundef nonnull align 8 dereferenceable(16) ptr @_ZN3nla6solver4tmp2Ev(ptr noundef nonnull align 8 dereferenceable(8) %call9)
  %call11 = call noundef nonnull align 8 dereferenceable(8) ptr @_ZNK5arith6solver8nl_valueEiR15_scoped_numeralIN17algebraic_numbers7managerEE(ptr noundef nonnull align 8 dereferenceable(1144) %this1, i32 noundef %1, ptr noundef nonnull align 8 dereferenceable(16) %call10)
  %call12 = call noundef zeroext i1 @_ZN17algebraic_numbers7manager2eqERKNS_4anumES3_(ptr noundef nonnull align 8 dereferenceable(17) %call3, ptr noundef nonnull align 8 dereferenceable(8) %call7, ptr noundef nonnull align 8 dereferenceable(8) %call11)
  store i1 %call12, ptr %retval, align 1
  br label %return

if.else:                                          ; preds = %entry
  %2 = load i32, ptr %v1.addr, align 4
  call void @_ZNK5arith6solver10get_ivalueEi(ptr sret(%"struct.lp::numeric_pair") align 8 %ref.tmp, ptr noundef nonnull align 8 dereferenceable(1144) %this1, i32 noundef %2)
  %3 = load i32, ptr %v2.addr, align 4
  invoke void @_ZNK5arith6solver10get_ivalueEi(ptr sret(%"struct.lp::numeric_pair") align 8 %ref.tmp13, ptr noundef nonnull align 8 dereferenceable(1144) %this1, i32 noundef %3)
          to label %invoke.cont unwind label %lpad

invoke.cont:                                      ; preds = %if.else
  %call16 = invoke noundef zeroext i1 @_ZNK2lp12numeric_pairI8rationalEeqERKS2_(ptr noundef nonnull align 8 dereferenceable(64) %ref.tmp, ptr noundef nonnull align 8 dereferenceable(64) %ref.tmp13)
          to label %invoke.cont15 unwind label %lpad14

invoke.cont15:                                    ; preds = %invoke.cont
  store i1 %call16, ptr %retval, align 1
  call void @_ZN2lp12numeric_pairI8rationalED2Ev(ptr noundef nonnull align 8 dereferenceable(64) %ref.tmp13) #3
  call void @_ZN2lp12numeric_pairI8rationalED2Ev(ptr noundef nonnull align 8 dereferenceable(64) %ref.tmp) #3
  br label %return

lpad:                                             ; preds = %if.else
  %4 = landingpad { ptr, i32 }
          cleanup
  %5 = extractvalue { ptr, i32 } %4, 0
  store ptr %5, ptr %exn.slot, align 8
  %6 = extractvalue { ptr, i32 } %4, 1
  store i32 %6, ptr %ehselector.slot, align 4
  br label %ehcleanup

lpad14:                                           ; preds = %invoke.cont
  %7 = landingpad { ptr, i32 }
          cleanup
  %8 = extractvalue { ptr, i32 } %7, 0
  store ptr %8, ptr %exn.slot, align 8
  %9 = extractvalue { ptr, i32 } %7, 1
  store i32 %9, ptr %ehselector.slot, align 4
  call void @_ZN2lp12numeric_pairI8rationalED2Ev(ptr noundef nonnull align 8 dereferenceable(64) %ref.tmp13) #3
  br label %ehcleanup

ehcleanup:                                        ; preds = %lpad14, %lpad
  call void @_ZN2lp12numeric_pairI8rationalED2Ev(ptr noundef nonnull align 8 dereferenceable(64) %ref.tmp) #3
  br label %eh.resume

return:                                           ; preds = %invoke.cont15, %if.then
  %10 = load i1, ptr %retval, align 1
  ret i1 %10

eh.resume:                                        ; preds = %ehcleanup
  %exn = load ptr, ptr %exn.slot, align 8
  %sel = load i32, ptr %ehselector.slot, align 4
  %lpad.val = insertvalue { ptr, i32 } poison, ptr %exn, 0
  %lpad.val17 = insertvalue { ptr, i32 } %lpad.val, i32 %sel, 1
  resume { ptr, i32 } %lpad.val17
}