; Function Attrs: mustprogress uwtable
define hidden noundef zeroext i1 @_ZN5arith6solver5is_eqEii(ptr noundef nonnull align 8 dereferenceable(1144) %this, i32 noundef %v1, i32 noundef %v2) local_unnamed_addr #3 align 2 personality ptr @__gxx_personality_v0 {
entry:
  %ref.tmp.i4 = alloca %"class.lp::tv", align 4
  %ref.tmp.i = alloca %"class.lp::tv", align 4
  %ref.tmp = alloca %"struct.lp::numeric_pair", align 8
  %ref.tmp13 = alloca %"struct.lp::numeric_pair", align 8
  %m_nla.i = getelementptr inbounds i8, ptr %this, i64 576
  %0 = load ptr, ptr %m_nla.i, align 8
  %cmp.i.not.i = icmp eq ptr %0, null
  br i1 %cmp.i.not.i, label %if.else, label %_ZN5arith6solver13use_nra_modelEv.exit

_ZN5arith6solver13use_nra_modelEv.exit:           ; preds = %entry
  %call4.i = tail call noundef zeroext i1 @_ZNK3nla6solver13use_nra_modelEv(ptr noundef nonnull align 8 dereferenceable(8) %0)
  br i1 %call4.i, label %if.then, label %if.else

if.then:                                          ; preds = %_ZN5arith6solver13use_nra_modelEv.exit
  %1 = load ptr, ptr %m_nla.i, align 8
  %call3 = tail call noundef nonnull align 8 dereferenceable(17) ptr @_ZN3nla6solver2amEv(ptr noundef nonnull align 8 dereferenceable(8) %1)
  %2 = load ptr, ptr %m_nla.i, align 8
  %call6 = tail call noundef nonnull align 8 dereferenceable(16) ptr @_ZN3nla6solver4tmp1Ev(ptr noundef nonnull align 8 dereferenceable(8) %2)
  %call7 = tail call noundef nonnull align 8 dereferenceable(8) ptr @_ZNK5arith6solver8nl_valueEiR15_scoped_numeralIN17algebraic_numbers7managerEE(ptr noundef nonnull align 8 dereferenceable(1144) %this, i32 noundef %v1, ptr noundef nonnull align 8 dereferenceable(16) %call6)
  %3 = load ptr, ptr %m_nla.i, align 8
  %call10 = tail call noundef nonnull align 8 dereferenceable(16) ptr @_ZN3nla6solver4tmp2Ev(ptr noundef nonnull align 8 dereferenceable(8) %3)
  %call11 = tail call noundef nonnull align 8 dereferenceable(8) ptr @_ZNK5arith6solver8nl_valueEiR15_scoped_numeralIN17algebraic_numbers7managerEE(ptr noundef nonnull align 8 dereferenceable(1144) %this, i32 noundef %v2, ptr noundef nonnull align 8 dereferenceable(16) %call10)
  %call12 = tail call noundef zeroext i1 @_ZN17algebraic_numbers7manager2eqERKNS_4anumES3_(ptr noundef nonnull align 8 dereferenceable(17) %call3, ptr noundef nonnull align 8 dereferenceable(8) %call7, ptr noundef nonnull align 8 dereferenceable(8) %call11)
  br label %return

if.else:                                          ; preds = %entry, %_ZN5arith6solver13use_nra_modelEv.exit
  call void @llvm.lifetime.start.p0(i64 4, ptr nonnull %ref.tmp.i)
  %m_solver.i = getelementptr inbounds i8, ptr %this, i64 592
  %4 = load ptr, ptr %m_solver.i, align 8, !noalias !92
  %call2.i = tail call i32 @_ZNK5arith6solver6get_tvEi(ptr noundef nonnull align 8 dereferenceable(1144) %this, i32 noundef %v1), !noalias !92
  store i32 %call2.i, ptr %ref.tmp.i, align 4, !noalias !92
  %call3.i = call noundef nonnull align 8 dereferenceable(64) ptr @_ZNK2lp10lar_solver13get_tv_ivalueERKNS_2tvE(ptr noundef nonnull align 8 dereferenceable(1888) %4, ptr noundef nonnull align 4 dereferenceable(4) %ref.tmp.i), !noalias !92
  call void @_ZN2lp12numeric_pairI8rationalEC2ERKS2_(ptr noundef nonnull align 8 dereferenceable(64) %ref.tmp, ptr noundef nonnull align 8 dereferenceable(64) %call3.i)
  call void @llvm.lifetime.end.p0(i64 4, ptr nonnull %ref.tmp.i)
  call void @llvm.lifetime.start.p0(i64 4, ptr nonnull %ref.tmp.i4)
  %5 = load ptr, ptr %m_solver.i, align 8, !noalias !95
  %call2.i68 = invoke i32 @_ZNK5arith6solver6get_tvEi(ptr noundef nonnull align 8 dereferenceable(1144) %this, i32 noundef %v2)
          to label %call2.i6.noexc unwind label %lpad

call2.i6.noexc:                                   ; preds = %if.else
  store i32 %call2.i68, ptr %ref.tmp.i4, align 4, !noalias !95
  %call3.i79 = invoke noundef nonnull align 8 dereferenceable(64) ptr @_ZNK2lp10lar_solver13get_tv_ivalueERKNS_2tvE(ptr noundef nonnull align 8 dereferenceable(1888) %5, ptr noundef nonnull align 4 dereferenceable(4) %ref.tmp.i4)
          to label %call3.i7.noexc unwind label %lpad

call3.i7.noexc:                                   ; preds = %call2.i6.noexc
  invoke void @_ZN2lp12numeric_pairI8rationalEC2ERKS2_(ptr noundef nonnull align 8 dereferenceable(64) %ref.tmp13, ptr noundef nonnull align 8 dereferenceable(64) %call3.i79)
          to label %invoke.cont unwind label %lpad

invoke.cont:                                      ; preds = %call3.i7.noexc
  call void @llvm.lifetime.end.p0(i64 4, ptr nonnull %ref.tmp.i4)
  %call16 = invoke noundef zeroext i1 @_ZNK2lp12numeric_pairI8rationalEeqERKS2_(ptr noundef nonnull align 8 dereferenceable(64) %ref.tmp, ptr noundef nonnull align 8 dereferenceable(64) %ref.tmp13)
          to label %invoke.cont15 unwind label %lpad14

invoke.cont15:                                    ; preds = %invoke.cont
  %y.i = getelementptr inbounds i8, ptr %ref.tmp13, i64 32
  %6 = load ptr, ptr @_ZN8rational13g_mpq_managerE, align 8
  invoke void @_ZN11mpz_managerILb1EE3delEPS0_R3mpz(ptr noundef %6, ptr noundef nonnull align 8 dereferenceable(16) %y.i)
          to label %.noexc.i.i unwind label %terminate.lpad.i.i

.noexc.i.i:                                       ; preds = %invoke.cont15
  %m_den.i.i.i = getelementptr inbounds i8, ptr %ref.tmp13, i64 48
  invoke void @_ZN11mpz_managerILb1EE3delEPS0_R3mpz(ptr noundef %6, ptr noundef nonnull align 8 dereferenceable(16) %m_den.i.i.i)
          to label %_ZN8rationalD2Ev.exit.i unwind label %terminate.lpad.i.i

terminate.lpad.i.i:                               ; preds = %.noexc.i.i, %invoke.cont15
  %7 = landingpad { ptr, i32 }
          catch ptr null
  %8 = extractvalue { ptr, i32 } %7, 0
  call void @__clang_call_terminate(ptr %8) #24
  unreachable

_ZN8rationalD2Ev.exit.i:                          ; preds = %.noexc.i.i
  %9 = load ptr, ptr @_ZN8rational13g_mpq_managerE, align 8
  invoke void @_ZN11mpz_managerILb1EE3delEPS0_R3mpz(ptr noundef %9, ptr noundef nonnull align 8 dereferenceable(16) %ref.tmp13)
          to label %.noexc.i2.i unwind label %terminate.lpad.i1.i

.noexc.i2.i:                                      ; preds = %_ZN8rationalD2Ev.exit.i
  %m_den.i.i3.i = getelementptr inbounds i8, ptr %ref.tmp13, i64 16
  invoke void @_ZN11mpz_managerILb1EE3delEPS0_R3mpz(ptr noundef %9, ptr noundef nonnull align 8 dereferenceable(16) %m_den.i.i3.i)
          to label %_ZN2lp12numeric_pairI8rationalED2Ev.exit unwind label %terminate.lpad.i1.i

terminate.lpad.i1.i:                              ; preds = %.noexc.i2.i, %_ZN8rationalD2Ev.exit.i
  %10 = landingpad { ptr, i32 }
          catch ptr null
  %11 = extractvalue { ptr, i32 } %10, 0
  call void @__clang_call_terminate(ptr %11) #24
  unreachable

_ZN2lp12numeric_pairI8rationalED2Ev.exit:         ; preds = %.noexc.i2.i
  %y.i10 = getelementptr inbounds i8, ptr %ref.tmp, i64 32
  %12 = load ptr, ptr @_ZN8rational13g_mpq_managerE, align 8
  invoke void @_ZN11mpz_managerILb1EE3delEPS0_R3mpz(ptr noundef %12, ptr noundef nonnull align 8 dereferenceable(16) %y.i10)
          to label %.noexc.i.i12 unwind label %terminate.lpad.i.i11

.noexc.i.i12:                                     ; preds = %_ZN2lp12numeric_pairI8rationalED2Ev.exit
  %m_den.i.i.i13 = getelementptr inbounds i8, ptr %ref.tmp, i64 48
  invoke void @_ZN11mpz_managerILb1EE3delEPS0_R3mpz(ptr noundef %12, ptr noundef nonnull align 8 dereferenceable(16) %m_den.i.i.i13)
          to label %_ZN8rationalD2Ev.exit.i14 unwind label %terminate.lpad.i.i11

terminate.lpad.i.i11:                             ; preds = %.noexc.i.i12, %_ZN2lp12numeric_pairI8rationalED2Ev.exit
  %13 = landingpad { ptr, i32 }
          catch ptr null
  %14 = extractvalue { ptr, i32 } %13, 0
  call void @__clang_call_terminate(ptr %14) #24
  unreachable

_ZN8rationalD2Ev.exit.i14:                        ; preds = %.noexc.i.i12
  %15 = load ptr, ptr @_ZN8rational13g_mpq_managerE, align 8
  invoke void @_ZN11mpz_managerILb1EE3delEPS0_R3mpz(ptr noundef %15, ptr noundef nonnull align 8 dereferenceable(16) %ref.tmp)
          to label %.noexc.i2.i16 unwind label %terminate.lpad.i1.i15

.noexc.i2.i16:                                    ; preds = %_ZN8rationalD2Ev.exit.i14
  %m_den.i.i3.i17 = getelementptr inbounds i8, ptr %ref.tmp, i64 16
  invoke void @_ZN11mpz_managerILb1EE3delEPS0_R3mpz(ptr noundef %15, ptr noundef nonnull align 8 dereferenceable(16) %m_den.i.i3.i17)
          to label %return unwind label %terminate.lpad.i1.i15

terminate.lpad.i1.i15:                            ; preds = %.noexc.i2.i16, %_ZN8rationalD2Ev.exit.i14
  %16 = landingpad { ptr, i32 }
          catch ptr null
  %17 = extractvalue { ptr, i32 } %16, 0
  call void @__clang_call_terminate(ptr %17) #24
  unreachable

lpad:                                             ; preds = %call3.i7.noexc, %call2.i6.noexc, %if.else
  %18 = landingpad { ptr, i32 }
          cleanup
  br label %ehcleanup

lpad14:                                           ; preds = %invoke.cont
  %19 = landingpad { ptr, i32 }
          cleanup
  call void @_ZN2lp12numeric_pairI8rationalED2Ev(ptr noundef nonnull align 8 dereferenceable(64) %ref.tmp13) #23
  br label %ehcleanup

ehcleanup:                                        ; preds = %lpad14, %lpad
  %.pn = phi { ptr, i32 } [ %19, %lpad14 ], [ %18, %lpad ]
  call void @_ZN2lp12numeric_pairI8rationalED2Ev(ptr noundef nonnull align 8 dereferenceable(64) %ref.tmp) #23
  resume { ptr, i32 } %.pn

return:                                           ; preds = %.noexc.i2.i16, %if.then
  %retval.0 = phi i1 [ %call12, %if.then ], [ %call16, %.noexc.i2.i16 ]
  ret i1 %retval.0
}